target datalayout = "e-m:e-p270:32:32-p271:32:32-p272:64:64-i64:64-i128:128-f80:128-n8:16:32:64-S128"
target triple = "x86_64-pc-linux-gnu"

%struct.DdManager = type { %struct.DdNode, ptr, ptr, ptr, ptr, ptr, ptr, ptr, i32, i32, double, double, double, i32, i32, i32, i32, i32, i32, ptr, ptr, %struct.DdSubtable, i32, i32, i32, i32, i32, i32, i32, double, i32, i32, i32, ptr, i64, double, i32, ptr, ptr, ptr, ptr, ptr, ptr, ptr, i32, ptr, ptr, ptr, ptr, ptr, ptr, i32, i32, i32, double, i32, i32, i32, i32, double, double, i32, i32, i32, i32, i32, i32, i32, i32, i32, ptr, ptr, i32, i32, i32, i32, i32, i32, ptr, ptr, ptr, ptr, ptr, ptr, ptr, ptr, i32, i64, i64, i64, i32, i64, i64, double, double, double, double, double, double, i32, ptr, ptr, i64 }
%struct.DdNode = type { i32, i32, ptr, %union.anon, i64 }
%union.anon = type { %struct.DdChildren }
%struct.DdChildren = type { ptr, ptr }
%struct.DdSubtable = type { ptr, i32, i32, i32, i32, i32, i32, i32, i32, i32, i32, i32 }
%struct.MtrNode = type { i32, i32, i32, i32, ptr, ptr, ptr, ptr }

; Function Attrs: nounwind uwtable
define ptr @Cudd_MakeTreeNode(ptr noundef %0, i32 noundef %1, i32 noundef %2, i32 noundef %3) #0 {
  %5 = alloca ptr, align 8
  %6 = alloca ptr, align 8
  %7 = alloca i32, align 4
  %8 = alloca i32, align 4
  %9 = alloca i32, align 4
  %10 = alloca ptr, align 8
  %11 = alloca ptr, align 8
  %12 = alloca i32, align 4
  %13 = alloca i32, align 4
  store ptr %0, ptr %6, align 8, !tbaa !3
  store i32 %1, ptr %7, align 4, !tbaa !8
  store i32 %2, ptr %8, align 4, !tbaa !8
  store i32 %3, ptr %9, align 4, !tbaa !8
  call void @llvm.lifetime.start.p0(i64 8, ptr %10) #6
  call void @llvm.lifetime.start.p0(i64 8, ptr %11) #6
  call void @llvm.lifetime.start.p0(i64 4, ptr %12) #6
  %14 = load i32, ptr %7, align 4, !tbaa !8
  %15 = load ptr, ptr %6, align 8, !tbaa !3
  %16 = getelementptr inbounds nuw %struct.DdManager, ptr %15, i32 0, i32 15
  %17 = load i32, ptr %16, align 8, !tbaa !10
  %18 = icmp ult i32 %14, %17
  br i1 %18, label %19, label %27

19:                                               ; preds = %4
  %20 = load ptr, ptr %6, align 8, !tbaa !3
  %21 = getelementptr inbounds nuw %struct.DdManager, ptr %20, i32 0, i32 37
  %22 = load ptr, ptr %21, align 8, !tbaa !27
  %23 = load i32, ptr %7, align 4, !tbaa !8
  %24 = zext i32 %23 to i64
  %25 = getelementptr inbounds nuw i32, ptr %22, i64 %24
  %26 = load i32, ptr %25, align 4, !tbaa !8
  br label %29

27:                                               ; preds = %4
  %28 = load i32, ptr %7, align 4, !tbaa !8
  br label %29

29:                                               ; preds = %27, %19
  %30 = phi i32 [ %26, %19 ], [ %28, %27 ]
  store i32 %30, ptr %12, align 4, !tbaa !8
  %31 = load i32, ptr %12, align 4, !tbaa !8
  %32 = load i32, ptr %8, align 4, !tbaa !8
  %33 = add i32 %31, %32
  %34 = sub i32 %33, 1
  %35 = icmp ugt i32 %34, 2147483647
  br i1 %35, label %36, label %37

36:                                               ; preds = %29
  store ptr null, ptr %5, align 8
  store i32 1, ptr %13, align 4
  br label %122

37:                                               ; preds = %29
  %38 = load ptr, ptr %6, align 8, !tbaa !3
  %39 = getelementptr inbounds nuw %struct.DdManager, ptr %38, i32 0, i32 70
  %40 = load ptr, ptr %39, align 8, !tbaa !28
  store ptr %40, ptr %11, align 8, !tbaa !29
  %41 = load ptr, ptr %11, align 8, !tbaa !29
  %42 = icmp eq ptr %41, null
  br i1 %42, label %43, label %61

43:                                               ; preds = %37
  %44 = load ptr, ptr %6, align 8, !tbaa !3
  %45 = getelementptr inbounds nuw %struct.DdManager, ptr %44, i32 0, i32 15
  %46 = load i32, ptr %45, align 8, !tbaa !10
  %47 = call ptr @Mtr_InitGroupTree(i32 noundef 0, i32 noundef %46)
  store ptr %47, ptr %11, align 8, !tbaa !29
  %48 = load ptr, ptr %6, align 8, !tbaa !3
  %49 = getelementptr inbounds nuw %struct.DdManager, ptr %48, i32 0, i32 70
  store ptr %47, ptr %49, align 8, !tbaa !28
  %50 = load ptr, ptr %11, align 8, !tbaa !29
  %51 = icmp eq ptr %50, null
  br i1 %51, label %52, label %53

52:                                               ; preds = %43
  store ptr null, ptr %5, align 8
  store i32 1, ptr %13, align 4
  br label %122

53:                                               ; preds = %43
  %54 = load ptr, ptr %6, align 8, !tbaa !3
  %55 = getelementptr inbounds nuw %struct.DdManager, ptr %54, i32 0, i32 39
  %56 = load ptr, ptr %55, align 8, !tbaa !30
  %57 = getelementptr inbounds i32, ptr %56, i64 0
  %58 = load i32, ptr %57, align 4, !tbaa !8
  %59 = load ptr, ptr %11, align 8, !tbaa !29
  %60 = getelementptr inbounds nuw %struct.MtrNode, ptr %59, i32 0, i32 3
  store i32 %58, ptr %60, align 4, !tbaa !31
  br label %61

61:                                               ; preds = %53, %37
  %62 = load ptr, ptr %6, align 8, !tbaa !3
  %63 = getelementptr inbounds nuw %struct.DdManager, ptr %62, i32 0, i32 15
  %64 = load i32, ptr %63, align 8, !tbaa !10
  %65 = load i32, ptr %12, align 4, !tbaa !8
  %66 = load i32, ptr %8, align 4, !tbaa !8
  %67 = add i32 %65, %66
  %68 = icmp ugt i32 %64, %67
  br i1 %68, label %69, label %73

69:                                               ; preds = %61
  %70 = load ptr, ptr %6, align 8, !tbaa !3
  %71 = getelementptr inbounds nuw %struct.DdManager, ptr %70, i32 0, i32 15
  %72 = load i32, ptr %71, align 8, !tbaa !10
  br label %77

73:                                               ; preds = %61
  %74 = load i32, ptr %12, align 4, !tbaa !8
  %75 = load i32, ptr %8, align 4, !tbaa !8
  %76 = add i32 %74, %75
  br label %77

77:                                               ; preds = %73, %69
  %78 = phi i32 [ %72, %69 ], [ %76, %73 ]
  %79 = load ptr, ptr %11, align 8, !tbaa !29
  %80 = getelementptr inbounds nuw %struct.MtrNode, ptr %79, i32 0, i32 2
  %81 = load i32, ptr %80, align 8, !tbaa !33
  %82 = icmp ugt i32 %78, %81
  br i1 %82, label %83, label %101

83:                                               ; preds = %77
  %84 = load ptr, ptr %6, align 8, !tbaa !3
  %85 = getelementptr inbounds nuw %struct.DdManager, ptr %84, i32 0, i32 15
  %86 = load i32, ptr %85, align 8, !tbaa !10
  %87 = load i32, ptr %12, align 4, !tbaa !8
  %88 = load i32, ptr %8, align 4, !tbaa !8
  %89 = add i32 %87, %88
  %90 = icmp ugt i32 %86, %89
  br i1 %90, label %91, label %95

91:                                               ; preds = %83
  %92 = load ptr, ptr %6, align 8, !tbaa !3
  %93 = getelementptr inbounds nuw %struct.DdManager, ptr %92, i32 0, i32 15
  %94 = load i32, ptr %93, align 8, !tbaa !10
  br label %99

95:                                               ; preds = %83
  %96 = load i32, ptr %12, align 4, !tbaa !8
  %97 = load i32, ptr %8, align 4, !tbaa !8
  %98 = add i32 %96, %97
  br label %99

99:                                               ; preds = %95, %91
  %100 = phi i32 [ %94, %91 ], [ %98, %95 ]
  br label %105

101:                                              ; preds = %77
  %102 = load ptr, ptr %11, align 8, !tbaa !29
  %103 = getelementptr inbounds nuw %struct.MtrNode, ptr %102, i32 0, i32 2
  %104 = load i32, ptr %103, align 8, !tbaa !33
  br label %105

105:                                              ; preds = %101, %99
  %106 = phi i32 [ %100, %99 ], [ %104, %101 ]
  %107 = load ptr, ptr %11, align 8, !tbaa !29
  %108 = getelementptr inbounds nuw %struct.MtrNode, ptr %107, i32 0, i32 2
  store i32 %106, ptr %108, align 8, !tbaa !33
  %109 = load ptr, ptr %11, align 8, !tbaa !29
  %110 = load i32, ptr %12, align 4, !tbaa !8
  %111 = load i32, ptr %8, align 4, !tbaa !8
  %112 = load i32, ptr %9, align 4, !tbaa !8
  %113 = call ptr @Mtr_MakeGroup(ptr noundef %109, i32 noundef %110, i32 noundef %111, i32 noundef %112)
  store ptr %113, ptr %10, align 8, !tbaa !29
  %114 = load ptr, ptr %10, align 8, !tbaa !29
  %115 = icmp eq ptr %114, null
  br i1 %115, label %116, label %117

116:                                              ; preds = %105
  store ptr null, ptr %5, align 8
  store i32 1, ptr %13, align 4
  br label %122

117:                                              ; preds = %105
  %118 = load i32, ptr %7, align 4, !tbaa !8
  %119 = load ptr, ptr %10, align 8, !tbaa !29
  %120 = getelementptr inbounds nuw %struct.MtrNode, ptr %119, i32 0, i32 3
  store i32 %118, ptr %120, align 4, !tbaa !31
  %121 = load ptr, ptr %10, align 8, !tbaa !29
  store ptr %121, ptr %5, align 8
  store i32 1, ptr %13, align 4
  br label %122

122:                                              ; preds = %117, %116, %52, %36
  call void @llvm.lifetime.end.p0(i64 4, ptr %12) #6
  call void @llvm.lifetime.end.p0(i64 8, ptr %11) #6
  call void @llvm.lifetime.end.p0(i64 8, ptr %10) #6
  %123 = load ptr, ptr %5, align 8
  ret ptr %123
}