; Function Attrs: nounwind uwtable
define ptr @Cudd_MakeTreeNode(ptr noundef captures(none) %0, i32 noundef %1, i32 noundef %2, i32 noundef %3) local_unnamed_addr #0 {
  %5 = getelementptr inbounds nuw i8, ptr %0, i64 136
  %6 = load i32, ptr %5, align 8, !tbaa !3
  %7 = icmp ult i32 %1, %6
  br i1 %7, label %8, label %14

8:                                                ; preds = %4
  %9 = getelementptr inbounds nuw i8, ptr %0, i64 312
  %10 = load ptr, ptr %9, align 8, !tbaa !24
  %11 = zext i32 %1 to i64
  %12 = getelementptr inbounds nuw i32, ptr %10, i64 %11
  %13 = load i32, ptr %12, align 4, !tbaa !25
  br label %14

14:                                               ; preds = %4, %8
  %15 = phi i32 [ %13, %8 ], [ %1, %4 ]
  %16 = add i32 %15, %2
  %17 = add i32 %16, -1
  %18 = icmp slt i32 %17, 0
  br i1 %18, label %39, label %19

19:                                               ; preds = %14
  %20 = getelementptr inbounds nuw i8, ptr %0, i64 520
  %21 = load ptr, ptr %20, align 8, !tbaa !26
  %22 = icmp eq ptr %21, null
  br i1 %22, label %23, label %31

23:                                               ; preds = %19
  %24 = tail call ptr @Mtr_InitGroupTree(i32 noundef 0, i32 noundef %6) #11
  store ptr %24, ptr %20, align 8, !tbaa !26
  %25 = icmp eq ptr %24, null
  br i1 %25, label %39, label %26

26:                                               ; preds = %23
  %27 = getelementptr inbounds nuw i8, ptr %0, i64 328
  %28 = load ptr, ptr %27, align 8, !tbaa !27
  %29 = load i32, ptr %28, align 4, !tbaa !25
  %30 = getelementptr inbounds nuw i8, ptr %24, i64 12
  store i32 %29, ptr %30, align 4, !tbaa !28
  %.pre = load i32, ptr %5, align 8, !tbaa !3
  br label %31

31:                                               ; preds = %26, %19
  %32 = phi i32 [ %.pre, %26 ], [ %6, %19 ]
  %.037 = phi ptr [ %24, %26 ], [ %21, %19 ]
  %. = tail call i32 @llvm.umax.i32(i32 %32, i32 %16)
  %33 = getelementptr inbounds nuw i8, ptr %.037, i64 8
  %34 = load i32, ptr %33, align 8, !tbaa !30
  %spec.select = tail call i32 @llvm.umax.i32(i32 %., i32 %34)
  store i32 %spec.select, ptr %33, align 8, !tbaa !30
  %35 = tail call ptr @Mtr_MakeGroup(ptr noundef nonnull %.037, i32 noundef %15, i32 noundef %2, i32 noundef %3) #11
  %36 = icmp eq ptr %35, null
  br i1 %36, label %39, label %37

37:                                               ; preds = %31
  %38 = getelementptr inbounds nuw i8, ptr %35, i64 12
  store i32 %1, ptr %38, align 4, !tbaa !28
  br label %39

39:                                               ; preds = %31, %23, %14, %37
  %.0 = phi ptr [ %35, %37 ], [ null, %14 ], [ null, %23 ], [ null, %31 ]
  ret ptr %.0
}